0000000000402003 <start_farm>:
  402003:	f3 0f 1e fa          	endbr64
  402007:	b8 01 00 00 00       	mov    $0x1,%eax
  40200c:	c3                   	ret

000000000040200d <getval_478>:
  40200d:	f3 0f 1e fa          	endbr64
  402011:	b8 58 91 c3 46       	mov    $0x46c39158,%eax
  402016:	c3                   	ret

0000000000402017 <addval_333>:
  402017:	f3 0f 1e fa          	endbr64
  40201b:	8d 87 fa 3f d6 78    	lea    0x78d63ffa(%rdi),%eax
  402021:	c3                   	ret

0000000000402022 <getval_131>:
  402022:	f3 0f 1e fa          	endbr64
  402026:	b8 48 89 c7 c3       	mov    $0xc3c78948,%eax
  40202b:	c3                   	ret

000000000040202c <setval_327>:
  40202c:	f3 0f 1e fa          	endbr64
  402030:	c7 07 48 89 c7 90    	movl   $0x90c78948,(%rdi)
  402036:	c3                   	ret

0000000000402037 <getval_144>:
  402037:	f3 0f 1e fa          	endbr64
  40203b:	b8 fe 58 90 90       	mov    $0x909058fe,%eax
  402040:	c3                   	ret

0000000000402041 <getval_230>:
  402041:	f3 0f 1e fa          	endbr64
  402045:	b8 40 89 c7 c3       	mov    $0xc3c78940,%eax
  40204a:	c3                   	ret

000000000040204b <addval_112>:
  40204b:	f3 0f 1e fa          	endbr64
  40204f:	8d 87 48 89 c7 c2    	lea    -0x3d3876b8(%rdi),%eax
  402055:	c3                   	ret

0000000000402056 <getval_429>:
  402056:	f3 0f 1e fa          	endbr64
  40205a:	b8 58 90 c3 b9       	mov    $0xb9c39058,%eax
  40205f:	c3                   	ret

0000000000402060 <mid_farm>:
  402060:	f3 0f 1e fa          	endbr64
  402064:	b8 01 00 00 00       	mov    $0x1,%eax
  402069:	c3                   	ret

000000000040206a <add_xy>:
  40206a:	f3 0f 1e fa          	endbr64
  40206e:	48 8d 04 37          	lea    (%rdi,%rsi,1),%rax
  402072:	c3                   	ret

0000000000402073 <getval_296>:
  402073:	f3 0f 1e fa          	endbr64
  402077:	b8 89 c2 c7 45       	mov    $0x45c7c289,%eax
  40207c:	c3                   	ret

000000000040207d <setval_329>:
  40207d:	f3 0f 1e fa          	endbr64
  402081:	c7 07 48 89 e0 90    	movl   $0x90e08948,(%rdi)
  402087:	c3                   	ret

0000000000402088 <getval_199>:
  402088:	f3 0f 1e fa          	endbr64
  40208c:	b8 89 ce a4 c0       	mov    $0xc0a4ce89,%eax
  402091:	c3                   	ret

0000000000402092 <addval_177>:
  402092:	f3 0f 1e fa          	endbr64
  402096:	8d 87 89 c2 78 d2    	lea    -0x2d873d77(%rdi),%eax
  40209c:	c3                   	ret

000000000040209d <getval_379>:
  40209d:	f3 0f 1e fa          	endbr64
  4020a1:	b8 48 88 e0 c3       	mov    $0xc3e08848,%eax
  4020a6:	c3                   	ret

00000000004020a7 <setval_453>:
  4020a7:	f3 0f 1e fa          	endbr64
  4020ab:	c7 07 15 89 d1 94    	movl   $0x94d18915,(%rdi)
  4020b1:	c3                   	ret

00000000004020b2 <getval_213>:
  4020b2:	f3 0f 1e fa          	endbr64
  4020b6:	b8 89 ce 20 d2       	mov    $0xd220ce89,%eax
  4020bb:	c3                   	ret

00000000004020bc <getval_175>:
  4020bc:	f3 0f 1e fa          	endbr64
  4020c0:	b8 8d ce 84 db       	mov    $0xdb84ce8d,%eax
  4020c5:	c3                   	ret

00000000004020c6 <setval_212>:
  4020c6:	f3 0f 1e fa          	endbr64
  4020ca:	c7 07 89 d1 00 c0    	movl   $0xc000d189,(%rdi)
  4020d0:	c3                   	ret

00000000004020d1 <getval_393>:
  4020d1:	f3 0f 1e fa          	endbr64
  4020d5:	b8 89 d1 94 d2       	mov    $0xd294d189,%eax
  4020da:	c3                   	ret

00000000004020db <getval_148>:
  4020db:	f3 0f 1e fa          	endbr64
  4020df:	b8 89 c2 28 c0       	mov    $0xc028c289,%eax
  4020e4:	c3                   	ret

00000000004020e5 <setval_232>:
  4020e5:	f3 0f 1e fa          	endbr64
  4020e9:	c7 07 48 a9 e0 c3    	movl   $0xc3e0a948,(%rdi)
  4020ef:	c3                   	ret

00000000004020f0 <addval_497>:
  4020f0:	f3 0f 1e fa          	endbr64
  4020f4:	8d 87 47 48 89 e0    	lea    -0x1f76b7b9(%rdi),%eax
  4020fa:	c3                   	ret

00000000004020fb <addval_143>:
  4020fb:	f3 0f 1e fa          	endbr64
  4020ff:	8d 87 89 ce 90 c7    	lea    -0x386f3177(%rdi),%eax
  402105:	c3                   	ret

0000000000402106 <addval_305>:
  402106:	f3 0f 1e fa          	endbr64
  40210a:	8d 87 89 d1 28 db    	lea    -0x24d72e77(%rdi),%eax
  402110:	c3                   	ret

0000000000402111 <setval_336>:
  402111:	f3 0f 1e fa          	endbr64
  402115:	c7 07 89 ce c4 c9    	movl   $0xc9c4ce89,(%rdi)
  40211b:	c3                   	ret

000000000040211c <addval_202>:
  40211c:	f3 0f 1e fa          	endbr64
  402120:	8d 87 89 c2 84 c0    	lea    -0x3f7b3d77(%rdi),%eax
  402126:	c3                   	ret

0000000000402127 <getval_456>:
  402127:	f3 0f 1e fa          	endbr64
  40212b:	b8 48 89 e0 c7       	mov    $0xc7e08948,%eax
  402130:	c3                   	ret

0000000000402131 <setval_413>:
  402131:	f3 0f 1e fa          	endbr64
  402135:	c7 07 89 ce 38 c0    	movl   $0xc038ce89,(%rdi)
  40213b:	c3                   	ret

000000000040213c <setval_275>:
  40213c:	f3 0f 1e fa          	endbr64
  402140:	c7 07 89 d1 38 db    	movl   $0xdb38d189,(%rdi)
  402146:	c3                   	ret

0000000000402147 <setval_154>:
  402147:	f3 0f 1e fa          	endbr64
  40214b:	c7 07 89 c2 c4 c0    	movl   $0xc0c4c289,(%rdi)
  402151:	c3                   	ret

0000000000402152 <addval_284>:
  402152:	f3 0f 1e fa          	endbr64
  402156:	8d 87 89 ce 60 c9    	lea    -0x369f3177(%rdi),%eax
  40215c:	c3                   	ret

000000000040215d <addval_472>:
  40215d:	f3 0f 1e fa          	endbr64
  402161:	8d 87 89 c2 92 90    	lea    -0x6f6d3d77(%rdi),%eax
  402167:	c3                   	ret

0000000000402168 <getval_494>:
  402168:	f3 0f 1e fa          	endbr64
  40216c:	b8 89 ce 78 c9       	mov    $0xc978ce89,%eax
  402171:	c3                   	ret

0000000000402172 <setval_335>:
  402172:	f3 0f 1e fa          	endbr64
  402176:	c7 07 48 89 e0 94    	movl   $0x94e08948,(%rdi)
  40217c:	c3                   	ret

000000000040217d <setval_389>:
  40217d:	f3 0f 1e fa          	endbr64
  402181:	c7 07 89 c2 60 db    	movl   $0xdb60c289,(%rdi)
  402187:	c3                   	ret

0000000000402188 <setval_399>:
  402188:	f3 0f 1e fa          	endbr64
  40218c:	c7 07 68 89 e0 90    	movl   $0x90e08968,(%rdi)
  402192:	c3                   	ret

0000000000402193 <setval_243>:
  402193:	f3 0f 1e fa          	endbr64
  402197:	c7 07 71 89 c2 90    	movl   $0x90c28971,(%rdi)
  40219d:	c3                   	ret

000000000040219e <addval_208>:
  40219e:	f3 0f 1e fa          	endbr64
  4021a2:	8d 87 01 89 d1 c1    	lea    -0x3e2e76ff(%rdi),%eax
  4021a8:	c3                   	ret

00000000004021a9 <addval_499>:
  4021a9:	f3 0f 1e fa          	endbr64
  4021ad:	8d 87 89 d1 48 db    	lea    -0x24b72e77(%rdi),%eax
  4021b3:	c3                   	ret

00000000004021b4 <setval_130>:
  4021b4:	f3 0f 1e fa          	endbr64
  4021b8:	c7 07 89 d1 20 c9    	movl   $0xc920d189,(%rdi)
  4021be:	c3                   	ret

00000000004021bf <getval_318>:
  4021bf:	f3 0f 1e fa          	endbr64
  4021c3:	b8 48 89 e0 c7       	mov    $0xc7e08948,%eax
  4021c8:	c3                   	ret

00000000004021c9 <end_farm>:
  4021c9:	f3 0f 1e fa          	endbr64
  4021cd:	b8 01 00 00 00       	mov    $0x1,%eax
  4021d2:	c3                   	ret
